target datalayout = "e-m:e-p270:32:32-p271:32:32-p272:64:64-i64:64-i128:128-f80:128-n8:16:32:64-S128"
target triple = "x86_64-pc-linux-gnu"

%"class.std::__cxx11::basic_string" = type { %"struct.std::__cxx11::basic_string<char>::_Alloc_hider", i64, %union.anon }
%"struct.std::__cxx11::basic_string<char>::_Alloc_hider" = type { ptr }
%union.anon = type { i64, [8 x i8] }
%"class.llvm::StringRef" = type { ptr, i64 }
%"struct.std::_Rb_tree_header" = type { %"struct.std::_Rb_tree_node_base", i64 }
%"struct.std::_Rb_tree_node_base" = type { i32, ptr, ptr, ptr }
%"struct.llvm::LaneBitmask" = type { i64 }
%"class.llvm::SmallVectorBase" = type { ptr, i32, i32 }
%"class.std::vector.170" = type { %"struct.std::_Vector_base.171" }
%"struct.std::_Vector_base.171" = type { %"struct.std::_Vector_base<const llvm::CodeGenRegister *, std::allocator<const llvm::CodeGenRegister *>>::_Vector_impl" }
%"struct.std::_Vector_base<const llvm::CodeGenRegister *, std::allocator<const llvm::CodeGenRegister *>>::_Vector_impl" = type { %"struct.std::_Vector_base<const llvm::CodeGenRegister *, std::allocator<const llvm::CodeGenRegister *>>::_Vector_impl_data" }
%"struct.std::_Vector_base<const llvm::CodeGenRegister *, std::allocator<const llvm::CodeGenRegister *>>::_Vector_impl_data" = type { ptr, ptr, ptr }
%"struct.llvm::RegSizeInfoByHwMode" = type { %"struct.llvm::InfoByHwMode.257" }
%"struct.llvm::InfoByHwMode.257" = type { %"class.std::map.258" }
%"class.std::map.258" = type { %"class.std::_Rb_tree.259" }
%"class.std::_Rb_tree.259" = type { %"struct.std::_Rb_tree<unsigned int, std::pair<const unsigned int, llvm::RegSizeInfo>, std::_Select1st<std::pair<const unsigned int, llvm::RegSizeInfo>>, std::less<unsigned int>>::_Rb_tree_impl" }
%"struct.std::_Rb_tree<unsigned int, std::pair<const unsigned int, llvm::RegSizeInfo>, std::_Select1st<std::pair<const unsigned int, llvm::RegSizeInfo>>, std::less<unsigned int>>::_Rb_tree_impl" = type { [8 x i8], %"struct.std::_Rb_tree_header" }
%"class.llvm::CodeGenRegisterClass" = type <{ %"class.std::vector.170", %"class.std::vector.231", %"class.llvm::BitVector", %"class.llvm::SmallVector.241", ptr, %"class.std::__cxx11::basic_string", %"class.llvm::DenseMap.246", %"class.llvm::DenseMap.249", %"class.llvm::BitVector", i32, [4 x i8], %"class.llvm::StringRef", %"class.llvm::SmallVector.252", %"struct.llvm::RegSizeInfoByHwMode", i32, i8, [3 x i8], %"class.llvm::StringRef", i8, i8, i8, [5 x i8], %"struct.llvm::LaneBitmask", i8, i8, i8, i8, [4 x i8] }>
%"class.std::vector.231" = type { %"struct.std::_Vector_base.232" }
%"struct.std::_Vector_base.232" = type { %"struct.std::_Vector_base<llvm::SmallVector<llvm::Record *, 16>, std::allocator<llvm::SmallVector<llvm::Record *, 16>>>::_Vector_impl" }
%"struct.std::_Vector_base<llvm::SmallVector<llvm::Record *, 16>, std::allocator<llvm::SmallVector<llvm::Record *, 16>>>::_Vector_impl" = type { %"struct.std::_Vector_base<llvm::SmallVector<llvm::Record *, 16>, std::allocator<llvm::SmallVector<llvm::Record *, 16>>>::_Vector_impl_data" }
%"struct.std::_Vector_base<llvm::SmallVector<llvm::Record *, 16>, std::allocator<llvm::SmallVector<llvm::Record *, 16>>>::_Vector_impl_data" = type { ptr, ptr, ptr }
%"class.llvm::SmallVector.241" = type { %"class.llvm::SmallVectorImpl.242", %"struct.llvm::SmallVectorStorage.245" }
%"class.llvm::SmallVectorImpl.242" = type { %"class.llvm::SmallVectorTemplateBase.243" }
%"class.llvm::SmallVectorTemplateBase.243" = type { %"class.llvm::SmallVectorTemplateCommon.244" }
%"class.llvm::SmallVectorTemplateCommon.244" = type { %"class.llvm::SmallVectorBase" }
%"struct.llvm::SmallVectorStorage.245" = type { [32 x i8] }
%"class.llvm::DenseMap.246" = type <{ ptr, i32, i32, i32, [4 x i8] }>
%"class.llvm::DenseMap.249" = type <{ ptr, i32, i32, i32, [4 x i8] }>
%"class.llvm::BitVector" = type <{ %"class.llvm::SmallVector.236", i32, [4 x i8] }>
%"class.llvm::SmallVector.236" = type { %"class.llvm::SmallVectorImpl.237", %"struct.llvm::SmallVectorStorage.240" }
%"class.llvm::SmallVectorImpl.237" = type { %"class.llvm::SmallVectorTemplateBase.238" }
%"class.llvm::SmallVectorTemplateBase.238" = type { %"class.llvm::SmallVectorTemplateCommon.239" }
%"class.llvm::SmallVectorTemplateCommon.239" = type { %"class.llvm::SmallVectorBase" }
%"struct.llvm::SmallVectorStorage.240" = type { [48 x i8] }
%"class.llvm::SmallVector.252" = type { %"class.llvm::SmallVectorImpl.253", %"struct.llvm::SmallVectorStorage.256" }
%"class.llvm::SmallVectorImpl.253" = type { %"class.llvm::SmallVectorTemplateBase.254" }
%"class.llvm::SmallVectorTemplateBase.254" = type { %"class.llvm::SmallVectorTemplateCommon.255" }
%"class.llvm::SmallVectorTemplateCommon.255" = type { %"class.llvm::SmallVectorBase" }
%"struct.llvm::SmallVectorStorage.256" = type { [224 x i8] }

; Function Attrs: mustprogress nounwind uwtable
define linkonce_odr void @_ZStplIcSt11char_traitsIcESaIcEENSt7__cxx1112basic_stringIT_T0_T1_EEOS8_RKS8_(ptr dead_on_unwind noalias writable sret(%"class.std::__cxx11::basic_string") align 8 %0, ptr noundef nonnull align 8 dereferenceable(32) %1, ptr noundef nonnull align 8 dereferenceable(32) %2) #0 comdat {
  %4 = alloca ptr, align 8
  %5 = alloca ptr, align 8
  %6 = alloca ptr, align 8
  store ptr %0, ptr %4, align 8
  store ptr %1, ptr %5, align 8
  store ptr %2, ptr %6, align 8
  %7 = load ptr, ptr %5, align 8
  %8 = load ptr, ptr %6, align 8
  %9 = call noundef nonnull align 8 dereferenceable(32) ptr @_ZNSt7__cxx1112basic_stringIcSt11char_traitsIcESaIcEE6appendERKS4_(ptr noundef nonnull align 8 dereferenceable(32) %7, ptr noundef nonnull align 8 dereferenceable(32) %8)
  call void @_ZNSt7__cxx1112basic_stringIcSt11char_traitsIcESaIcEEC1EOS4_(ptr noundef nonnull align 8 dereferenceable(32) %0, ptr noundef nonnull align 8 dereferenceable(32) %9) #6
  ret void
}

; Function Attrs: mustprogress nounwind uwtable
define linkonce_odr hidden noundef nonnull align 8 dereferenceable(32) ptr @_ZNK4llvm20CodeGenRegisterClass7getNameB5cxx11Ev(ptr noundef nonnull align 8 dereferenceable(684) %0) #0 comdat align 2 {
  %2 = alloca ptr, align 8
  store ptr %0, ptr %2, align 8
  %3 = load ptr, ptr %2, align 8
  %4 = getelementptr inbounds nuw %"class.llvm::CodeGenRegisterClass", ptr %3, i32 0, i32 5
  ret ptr %4
}

; Function Attrs: mustprogress nounwind uwtable
define dso_local void @_ZNK4llvm20CodeGenRegisterClass16getQualifiedNameB5cxx11Ev(ptr dead_on_unwind noalias writable sret(%"class.std::__cxx11::basic_string") align 8 %0, ptr noundef nonnull align 8 dereferenceable(684) %1) #0 align 2 {
  %3 = alloca ptr, align 8
  %4 = alloca ptr, align 8
  %5 = alloca %"class.std::__cxx11::basic_string", align 8
  store ptr %0, ptr %3, align 8
  store ptr %1, ptr %4, align 8
  %6 = load ptr, ptr %4, align 8
  call void @_ZNK4llvm20CodeGenRegisterClass25getNamespaceQualificationB5cxx11Ev(ptr dead_on_unwind writable sret(%"class.std::__cxx11::basic_string") align 8 %5, ptr noundef nonnull align 8 dereferenceable(684) %6)
  %7 = call noundef nonnull align 8 dereferenceable(32) ptr @_ZNK4llvm20CodeGenRegisterClass7getNameB5cxx11Ev(ptr noundef nonnull align 8 dereferenceable(684) %6)
  call void @_ZStplIcSt11char_traitsIcESaIcEENSt7__cxx1112basic_stringIT_T0_T1_EEOS8_RKS8_(ptr dead_on_unwind writable sret(%"class.std::__cxx11::basic_string") align 8 %0, ptr noundef nonnull align 8 dereferenceable(32) %5, ptr noundef nonnull align 8 dereferenceable(32) %7)
  call void @_ZNSt7__cxx1112basic_stringIcSt11char_traitsIcESaIcEED1Ev(ptr noundef nonnull align 8 dereferenceable(32) %5) #6
  ret void
}